ccopy_reg
_reconstructor
p0
(cgoogle.oauth2.credentials
Credentials
p1
c__builtin__
object
p2
Ntp3
Rp4
(dp5
S'_quota_project_id'
p6
NsS'_token_uri'
p7
Vhttps://oauth2.googleapis.com/token
p8
sS'_client_secret'
p9
Vgt1ujeFjHZQ9g7Yknyiad4hC
p10
sS'_id_token'
p11
NsS'token'
p12
Vya29.a0AfH6SMC6ZwaEhQQZxrkpzE7KIDat0nI9vxXQL-U98JRjS_ogcCVkIhSaJVCXUm2qt8AK5f595XngHBaoc2mVCbGjnQGPrEABoLs-uwLjzHt4f2zo2peH0bwxPz_sXYCrxORX6KSAo1VEq2BktqgxpUPPw00w2LLXuw1u
p13
sS'_refresh_token'
p14
V1//0gWtrJ4nHa_iSCgYIARAAGBASNwF-L9Ir3eS0ZIbEkog6wlSZq1oC97L_OMlYRPBEZBqsl3nDPyPx3bMDcSV3EdXMyNHXWkW3zAs
p15
sS'_scopes'
p16
(lp17
S'https://www.googleapis.com/auth/calendar.readonly'
p18
asS'_client_id'
p19
V219629517429-v70h0bvmqv78895h31f2ntfur9ne4ivv.apps.googleusercontent.com
p20
sS'expiry'
p21
cdatetime
datetime
p22
(S'\x07\xe4\x07\x1a\x0c8\x0b\r\xf2\xf0'
p23
tp24
Rp25
sb.